target datalayout = "e-m:e-p270:32:32-p271:32:32-p272:64:64-i64:64-i128:128-f80:128-n8:16:32:64-S128"
target triple = "x86_64-pc-linux-gnu"

; Function Attrs: nounwind uwtable
define internal void @draw_sample_cline_rgba_full(ptr noundef %0, i32 noundef %1, i32 noundef %2, ptr noundef %3, ptr noundef %4, i32 noundef %5) #1 {
  %7 = alloca ptr, align 8
  %8 = alloca i32, align 4
  %9 = alloca i32, align 4
  %10 = alloca ptr, align 8
  %11 = alloca ptr, align 8
  %12 = alloca i32, align 4
  %13 = alloca i32, align 4
  %14 = alloca i32, align 4
  %15 = alloca i32, align 4
  %16 = alloca ptr, align 8
  %17 = alloca i32, align 4
  store ptr %0, ptr %7, align 8, !tbaa !69
  store i32 %1, ptr %8, align 4, !tbaa !49
  store i32 %2, ptr %9, align 4, !tbaa !49
  store ptr %3, ptr %10, align 8, !tbaa !92
  store ptr %4, ptr %11, align 8, !tbaa !69
  store i32 %5, ptr %12, align 4, !tbaa !49
  call void @llvm.lifetime.start.p0(i64 4, ptr %13) #13
  %18 = load ptr, ptr %11, align 8, !tbaa !69
  %19 = load i32, ptr %18, align 1, !tbaa !89
  store i32 %19, ptr %13, align 4, !tbaa !49
  call void @llvm.lifetime.start.p0(i64 4, ptr %14) #13
  %20 = load i32, ptr %8, align 4, !tbaa !49
  %21 = load i32, ptr %12, align 4, !tbaa !49
  %22 = sub nsw i32 %20, %21
  %23 = sdiv i32 %22, 2
  store i32 %23, ptr %14, align 4, !tbaa !49
  call void @llvm.lifetime.start.p0(i64 4, ptr %15) #13
  %24 = load i32, ptr %14, align 4, !tbaa !49
  %25 = load i32, ptr %12, align 4, !tbaa !49
  %26 = add nsw i32 %24, %25
  store i32 %26, ptr %15, align 4, !tbaa !49
  call void @llvm.lifetime.start.p0(i64 8, ptr %16) #13
  %27 = load ptr, ptr %7, align 8, !tbaa !69
  %28 = load i32, ptr %14, align 4, !tbaa !49
  %29 = load i32, ptr %9, align 4, !tbaa !49
  %30 = mul nsw i32 %28, %29
  %31 = sext i32 %30 to i64
  %32 = getelementptr inbounds i8, ptr %27, i64 %31
  store ptr %32, ptr %16, align 8, !tbaa !69
  call void @llvm.lifetime.start.p0(i64 4, ptr %17) #13
  %33 = load i32, ptr %14, align 4, !tbaa !49
  store i32 %33, ptr %17, align 4, !tbaa !49
  br label %34

34:                                               ; preds = %42, %6
  %35 = load i32, ptr %17, align 4, !tbaa !49
  %36 = load i32, ptr %15, align 4, !tbaa !49
  %37 = icmp slt i32 %35, %36
  br i1 %37, label %39, label %38

38:                                               ; preds = %34
  call void @llvm.lifetime.end.p0(i64 4, ptr %17) #13
  br label %49

39:                                               ; preds = %34
  %40 = load i32, ptr %13, align 4, !tbaa !49
  %41 = load ptr, ptr %16, align 8, !tbaa !69
  store i32 %40, ptr %41, align 1, !tbaa !89
  br label %42

42:                                               ; preds = %39
  %43 = load i32, ptr %17, align 4, !tbaa !49
  %44 = add nsw i32 %43, 1
  store i32 %44, ptr %17, align 4, !tbaa !49
  %45 = load i32, ptr %9, align 4, !tbaa !49
  %46 = load ptr, ptr %16, align 8, !tbaa !69
  %47 = sext i32 %45 to i64
  %48 = getelementptr inbounds i8, ptr %46, i64 %47
  store ptr %48, ptr %16, align 8, !tbaa !69
  br label %34, !llvm.loop !103

49:                                               ; preds = %38
  call void @llvm.lifetime.end.p0(i64 8, ptr %16) #13
  call void @llvm.lifetime.end.p0(i64 4, ptr %15) #13
  call void @llvm.lifetime.end.p0(i64 4, ptr %14) #13
  call void @llvm.lifetime.end.p0(i64 4, ptr %13) #13
  ret void
}