; Function Attrs: nofree norecurse nosync nounwind memory(argmem: readwrite) uwtable
define internal void @draw_sample_cline_rgba_full(ptr noundef writeonly captures(none) %0, i32 noundef %1, i32 noundef %2, ptr readnone captures(none) %3, ptr noundef readonly captures(none) %4, i32 noundef %5) #7 {
  %7 = load i32, ptr %4, align 1, !tbaa !96
  %8 = sub nsw i32 %1, %5
  %9 = sdiv i32 %8, 2
  %10 = add nsw i32 %9, %5
  %11 = icmp sgt i32 %5, 0
  br i1 %11, label %.lr.ph, label %._crit_edge

.lr.ph:                                           ; preds = %6
  %12 = mul nsw i32 %9, %2
  %13 = sext i32 %12 to i64
  %14 = getelementptr inbounds i8, ptr %0, i64 %13
  %15 = sext i32 %2 to i64
  br label %16

._crit_edge:                                      ; preds = %16, %6
  ret void

16:                                               ; preds = %.lr.ph, %16
  %.017 = phi i32 [ %9, %.lr.ph ], [ %17, %16 ]
  %.01516 = phi ptr [ %14, %.lr.ph ], [ %18, %16 ]
  store i32 %7, ptr %.01516, align 1, !tbaa !96
  %17 = add nsw i32 %.017, 1
  %18 = getelementptr inbounds i8, ptr %.01516, i64 %15
  %19 = icmp slt i32 %17, %10
  br i1 %19, label %16, label %._crit_edge, !llvm.loop !107
}